target datalayout = "e-m:e-p270:32:32-p271:32:32-p272:64:64-i64:64-i128:128-f80:128-n8:16:32:64-S128"
target triple = "x86_64-pc-linux-gnu"

%struct._packet_info = type { ptr, ptr, i32, i32, %struct.nstime_t, %struct.nstime_t, %struct.nstime_t, i8, ptr, ptr, ptr, ptr, %struct._address, %struct._address, %struct._address, %struct._address, %struct._address, %struct._address, i32, ptr, i8, [3 x i8], %struct.anon, i32, i32, i32, i32, ptr, i8, ptr, ptr, i16, i16, i32, i32, i16, i32, i32, ptr, ptr, ptr, i8, i8, i16, i16, i16, i32, i16, i16, ptr, ptr, ptr, ptr, ptr, i32, i32 }
%struct.nstime_t = type { i64, i32 }
%struct._address = type { i32, i32, ptr, ptr }
%struct.anon = type { i8, [3 x i8] }
%struct._frame_data = type <{ i32, i32, i32, i32, i32, [4 x i8], i64, ptr, ptr, ptr, i8, i16, [5 x i8], %struct.nstime_t, %struct.nstime_t, i32, i32 }>
%struct.channel_hash_key = type { i32 }
%struct.channel_sequence_analysis_status = type { i8, i16, i32, i8, ptr }

@sequence_analysis_channel_hash = internal global ptr null, align 8

; Function Attrs: null_pointer_is_valid sspstrong uwtable
define hidden void @rlc_lte_reset_ue_bearers(ptr noundef %0, i16 noundef zeroext %1) #0 {
  %3 = alloca ptr, align 8
  %4 = alloca i16, align 2
  %5 = alloca %struct.channel_hash_key, align 4
  %6 = alloca ptr, align 8
  %7 = alloca i32, align 4
  %8 = alloca i32, align 4
  %9 = alloca i32, align 4
  %10 = alloca i32, align 4
  %11 = alloca i32, align 4
  store ptr %0, ptr %3, align 8
  store i16 %1, ptr %4, align 2
  %12 = load ptr, ptr %3, align 8
  %13 = getelementptr inbounds nuw %struct._packet_info, ptr %12, i32 0, i32 8
  %14 = load ptr, ptr %13, align 8
  %15 = getelementptr inbounds nuw %struct._frame_data, ptr %14, i32 0, i32 11
  %16 = load i16, ptr %15, align 1
  %17 = lshr i16 %16, 3
  %18 = and i16 %17, 1
  %19 = zext i16 %18 to i32
  %20 = icmp ne i32 %19, 0
  br i1 %20, label %21, label %22

21:                                               ; preds = %2
  br label %119

22:                                               ; preds = %2
  call void @llvm.lifetime.start.p0(i64 4, ptr %5) #16
  call void @llvm.lifetime.start.p0(i64 8, ptr %6) #16
  %23 = load i16, ptr %4, align 2
  %24 = zext i16 %23 to i32
  %25 = load i32, ptr %5, align 4
  %26 = and i32 %24, 65535
  %27 = and i32 %25, -65536
  %28 = or i32 %27, %26
  store i32 %28, ptr %5, align 4
  %29 = load i32, ptr %5, align 4
  %30 = and i32 %29, -458753
  %31 = or i32 %30, 262144
  store i32 %31, ptr %5, align 4
  call void @llvm.lifetime.start.p0(i64 4, ptr %7) #16
  store i32 1, ptr %7, align 4
  br label %32

32:                                               ; preds = %70, %22
  %33 = load i32, ptr %7, align 4
  %34 = icmp ule i32 %33, 2
  br i1 %34, label %36, label %35

35:                                               ; preds = %32
  store i32 2, ptr %8, align 4
  call void @llvm.lifetime.end.p0(i64 4, ptr %7) #16
  br label %73

36:                                               ; preds = %32
  call void @llvm.lifetime.start.p0(i64 4, ptr %9) #16
  store i32 0, ptr %9, align 4
  br label %37

37:                                               ; preds = %66, %36
  %38 = load i32, ptr %9, align 4
  %39 = icmp ule i32 %38, 1
  br i1 %39, label %41, label %40

40:                                               ; preds = %37
  store i32 5, ptr %8, align 4
  call void @llvm.lifetime.end.p0(i64 4, ptr %9) #16
  br label %69

41:                                               ; preds = %37
  %42 = load i32, ptr %7, align 4
  %43 = load i32, ptr %5, align 4
  %44 = and i32 %42, 31
  %45 = shl i32 %44, 19
  %46 = and i32 %43, -16252929
  %47 = or i32 %46, %45
  store i32 %47, ptr %5, align 4
  %48 = load i32, ptr %9, align 4
  %49 = load i32, ptr %5, align 4
  %50 = and i32 %48, 1
  %51 = shl i32 %50, 24
  %52 = and i32 %49, -16777217
  %53 = or i32 %52, %51
  store i32 %53, ptr %5, align 4
  %54 = load ptr, ptr @sequence_analysis_channel_hash, align 8
  %55 = call ptr @wmem_map_lookup(ptr noundef %54, ptr noundef %5)
  store ptr %55, ptr %6, align 8
  %56 = load ptr, ptr %6, align 8
  %57 = icmp ne ptr %56, null
  br i1 %57, label %58, label %65

58:                                               ; preds = %41
  %59 = load ptr, ptr %6, align 8
  %60 = getelementptr inbounds nuw %struct.channel_sequence_analysis_status, ptr %59, i32 0, i32 1
  store i16 -1, ptr %60, align 2
  %61 = load ptr, ptr %6, align 8
  %62 = getelementptr inbounds nuw %struct.channel_sequence_analysis_status, ptr %61, i32 0, i32 2
  store i32 0, ptr %62, align 4
  %63 = load ptr, ptr %6, align 8
  %64 = getelementptr inbounds nuw %struct.channel_sequence_analysis_status, ptr %63, i32 0, i32 3
  store i8 0, ptr %64, align 8
  br label %65

65:                                               ; preds = %58, %41
  br label %66

66:                                               ; preds = %65
  %67 = load i32, ptr %9, align 4
  %68 = add i32 %67, 1
  store i32 %68, ptr %9, align 4
  br label %37, !llvm.loop !8

69:                                               ; preds = %40
  br label %70

70:                                               ; preds = %69
  %71 = load i32, ptr %7, align 4
  %72 = add i32 %71, 1
  store i32 %72, ptr %7, align 4
  br label %32, !llvm.loop !10

73:                                               ; preds = %35
  %74 = load i32, ptr %5, align 4
  %75 = and i32 %74, -458753
  %76 = or i32 %75, 327680
  store i32 %76, ptr %5, align 4
  call void @llvm.lifetime.start.p0(i64 4, ptr %10) #16
  store i32 1, ptr %10, align 4
  br label %77

77:                                               ; preds = %115, %73
  %78 = load i32, ptr %10, align 4
  %79 = icmp ule i32 %78, 32
  br i1 %79, label %81, label %80

80:                                               ; preds = %77
  store i32 8, ptr %8, align 4
  call void @llvm.lifetime.end.p0(i64 4, ptr %10) #16
  br label %118

81:                                               ; preds = %77
  call void @llvm.lifetime.start.p0(i64 4, ptr %11) #16
  store i32 0, ptr %11, align 4
  br label %82

82:                                               ; preds = %111, %81
  %83 = load i32, ptr %11, align 4
  %84 = icmp ule i32 %83, 1
  br i1 %84, label %86, label %85

85:                                               ; preds = %82
  store i32 11, ptr %8, align 4
  call void @llvm.lifetime.end.p0(i64 4, ptr %11) #16
  br label %114

86:                                               ; preds = %82
  %87 = load i32, ptr %10, align 4
  %88 = load i32, ptr %5, align 4
  %89 = and i32 %87, 31
  %90 = shl i32 %89, 19
  %91 = and i32 %88, -16252929
  %92 = or i32 %91, %90
  store i32 %92, ptr %5, align 4
  %93 = load i32, ptr %11, align 4
  %94 = load i32, ptr %5, align 4
  %95 = and i32 %93, 1
  %96 = shl i32 %95, 24
  %97 = and i32 %94, -16777217
  %98 = or i32 %97, %96
  store i32 %98, ptr %5, align 4
  %99 = load ptr, ptr @sequence_analysis_channel_hash, align 8
  %100 = call ptr @wmem_map_lookup(ptr noundef %99, ptr noundef %5)
  store ptr %100, ptr %6, align 8
  %101 = load ptr, ptr %6, align 8
  %102 = icmp ne ptr %101, null
  br i1 %102, label %103, label %110

103:                                              ; preds = %86
  %104 = load ptr, ptr %6, align 8
  %105 = getelementptr inbounds nuw %struct.channel_sequence_analysis_status, ptr %104, i32 0, i32 1
  store i16 -1, ptr %105, align 2
  %106 = load ptr, ptr %6, align 8
  %107 = getelementptr inbounds nuw %struct.channel_sequence_analysis_status, ptr %106, i32 0, i32 2
  store i32 0, ptr %107, align 4
  %108 = load ptr, ptr %6, align 8
  %109 = getelementptr inbounds nuw %struct.channel_sequence_analysis_status, ptr %108, i32 0, i32 3
  store i8 0, ptr %109, align 8
  br label %110

110:                                              ; preds = %103, %86
  br label %111

111:                                              ; preds = %110
  %112 = load i32, ptr %11, align 4
  %113 = add i32 %112, 1
  store i32 %113, ptr %11, align 4
  br label %82, !llvm.loop !11

114:                                              ; preds = %85
  br label %115

115:                                              ; preds = %114
  %116 = load i32, ptr %10, align 4
  %117 = add i32 %116, 1
  store i32 %117, ptr %10, align 4
  br label %77, !llvm.loop !12

118:                                              ; preds = %80
  call void @llvm.lifetime.end.p0(i64 8, ptr %6) #16
  call void @llvm.lifetime.end.p0(i64 4, ptr %5) #16
  br label %119

119:                                              ; preds = %118, %21
  ret void
}