; Function Attrs: null_pointer_is_valid sspstrong uwtable
define hidden void @rlc_lte_reset_ue_bearers(ptr noundef readonly captures(none) %0, i16 noundef zeroext %1) local_unnamed_addr #0 {
  %3 = alloca %struct.channel_hash_key, align 4
  %4 = getelementptr inbounds nuw i8, ptr %0, i64 80
  %5 = load ptr, ptr %4, align 8
  %6 = getelementptr inbounds nuw i8, ptr %5, i64 57
  %7 = load i16, ptr %6, align 1
  %8 = and i16 %7, 8
  %.not = icmp eq i16 %8, 0
  br i1 %.not, label %9, label %49

9:                                                ; preds = %2
  call void @llvm.lifetime.start.p0(i64 4, ptr nonnull %3) #17
  %10 = zext i16 %1 to i32
  %11 = or disjoint i32 %10, 262144
  store i32 %11, ptr %3, align 4
  br label %.preheader28

.preheader28:                                     ; preds = %9, %17
  %.02330 = phi i32 [ 1, %9 ], [ %18, %17 ]
  %12 = shl nuw nsw i32 %.02330, 19
  br label %19

13:                                               ; preds = %17
  %14 = load i32, ptr %3, align 4
  %15 = and i32 %14, -458753
  %16 = or disjoint i32 %15, 327680
  store i32 %16, ptr %3, align 4
  br label %.preheader

17:                                               ; preds = %31
  %18 = add nuw nsw i32 %.02330, 1
  %exitcond.not = icmp eq i32 %18, 3
  br i1 %exitcond.not, label %13, label %.preheader28, !llvm.loop !6

19:                                               ; preds = %.preheader28, %31
  %20 = phi i1 [ true, %.preheader28 ], [ false, %31 ]
  %.02229 = phi i32 [ 0, %.preheader28 ], [ 16777216, %31 ]
  %21 = load i32, ptr %3, align 4
  %22 = and i32 %21, -33030145
  %23 = add nuw nsw i32 %22, %12
  %24 = add nuw nsw i32 %23, %.02229
  store i32 %24, ptr %3, align 4
  %25 = load ptr, ptr @sequence_analysis_channel_hash, align 8
  %26 = call ptr @wmem_map_lookup(ptr noundef %25, ptr noundef nonnull %3)
  %.not27 = icmp eq ptr %26, null
  br i1 %.not27, label %31, label %27

27:                                               ; preds = %19
  %28 = getelementptr inbounds nuw i8, ptr %26, i64 2
  store i16 -1, ptr %28, align 2
  %29 = getelementptr inbounds nuw i8, ptr %26, i64 4
  store i32 0, ptr %29, align 4
  %30 = getelementptr inbounds nuw i8, ptr %26, i64 8
  store i8 0, ptr %30, align 8
  br label %31

31:                                               ; preds = %19, %27
  br i1 %20, label %19, label %17, !llvm.loop !8

.preheader:                                       ; preds = %13, %34
  %.02132 = phi i32 [ 1, %13 ], [ %35, %34 ]
  %32 = shl nuw nsw i32 %.02132, 19
  %.masked = and i32 %32, 16252928
  br label %36

33:                                               ; preds = %34
  call void @llvm.lifetime.end.p0(i64 4, ptr nonnull %3) #17
  br label %49

34:                                               ; preds = %48
  %35 = add nuw nsw i32 %.02132, 1
  %exitcond33.not = icmp eq i32 %35, 33
  br i1 %exitcond33.not, label %33, label %.preheader, !llvm.loop !9

36:                                               ; preds = %.preheader, %48
  %37 = phi i1 [ true, %.preheader ], [ false, %48 ]
  %.031 = phi i32 [ 0, %.preheader ], [ 16777216, %48 ]
  %38 = load i32, ptr %3, align 4
  %39 = and i32 %38, -33030145
  %40 = or disjoint i32 %.masked, %39
  %41 = or disjoint i32 %40, %.031
  store i32 %41, ptr %3, align 4
  %42 = load ptr, ptr @sequence_analysis_channel_hash, align 8
  %43 = call ptr @wmem_map_lookup(ptr noundef %42, ptr noundef nonnull %3)
  %.not26 = icmp eq ptr %43, null
  br i1 %.not26, label %48, label %44

44:                                               ; preds = %36
  %45 = getelementptr inbounds nuw i8, ptr %43, i64 2
  store i16 -1, ptr %45, align 2
  %46 = getelementptr inbounds nuw i8, ptr %43, i64 4
  store i32 0, ptr %46, align 4
  %47 = getelementptr inbounds nuw i8, ptr %43, i64 8
  store i8 0, ptr %47, align 8
  br label %48

48:                                               ; preds = %36, %44
  br i1 %37, label %36, label %34, !llvm.loop !10

49:                                               ; preds = %2, %33
  ret void
}